target datalayout = "e-m:e-p270:32:32-p271:32:32-p272:64:64-i64:64-i128:128-f80:128-n8:16:32:64-S128"
target triple = "x86_64-pc-linux-gnu"

%"struct.simdjson::internal::decimal" = type { i32, i32, i8, i8, [768 x i8] }

; Function Attrs: inlinehint mustprogress nounwind uwtable
define internal void @_ZN8simdjson8internal12_GLOBAL__N_14trimERNS0_7decimalE(ptr noundef nonnull align 4 dereferenceable(780) %0) #4 {
  %2 = alloca ptr, align 8
  store ptr %0, ptr %2, align 8, !tbaa !44
  br label %3

3:                                                ; preds = %22, %1
  %4 = load ptr, ptr %2, align 8, !tbaa !44
  %5 = getelementptr inbounds nuw %"struct.simdjson::internal::decimal", ptr %4, i32 0, i32 0
  %6 = load i32, ptr %5, align 4, !tbaa !26
  %7 = icmp ugt i32 %6, 0
  br i1 %7, label %8, label %20

8:                                                ; preds = %3
  %9 = load ptr, ptr %2, align 8, !tbaa !44
  %10 = getelementptr inbounds nuw %"struct.simdjson::internal::decimal", ptr %9, i32 0, i32 4
  %11 = load ptr, ptr %2, align 8, !tbaa !44
  %12 = getelementptr inbounds nuw %"struct.simdjson::internal::decimal", ptr %11, i32 0, i32 0
  %13 = load i32, ptr %12, align 4, !tbaa !26
  %14 = sub i32 %13, 1
  %15 = zext i32 %14 to i64
  %16 = getelementptr inbounds nuw [768 x i8], ptr %10, i64 0, i64 %15
  %17 = load i8, ptr %16, align 1, !tbaa !15
  %18 = zext i8 %17 to i32
  %19 = icmp eq i32 %18, 0
  br label %20

20:                                               ; preds = %8, %3
  %21 = phi i1 [ false, %3 ], [ %19, %8 ]
  br i1 %21, label %22, label %27

22:                                               ; preds = %20
  %23 = load ptr, ptr %2, align 8, !tbaa !44
  %24 = getelementptr inbounds nuw %"struct.simdjson::internal::decimal", ptr %23, i32 0, i32 0
  %25 = load i32, ptr %24, align 4, !tbaa !26
  %26 = add i32 %25, -1
  store i32 %26, ptr %24, align 4, !tbaa !26
  br label %3, !llvm.loop !52

27:                                               ; preds = %20
  ret void
}

; Function Attrs: mustprogress uwtable
define dso_local void @_ZN8simdjson8internal19decimal_right_shiftERNS0_7decimalEj(ptr noundef nonnull align 4 dereferenceable(780) %0, i32 noundef %1) #0 {
  %3 = alloca ptr, align 8
  %4 = alloca i32, align 4
  %5 = alloca i32, align 4
  %6 = alloca i32, align 4
  %7 = alloca i64, align 8
  %8 = alloca i32, align 4
  %9 = alloca i64, align 8
  %10 = alloca i8, align 1
  %11 = alloca i8, align 1
  store ptr %0, ptr %3, align 8, !tbaa !44
  store i32 %1, ptr %4, align 4, !tbaa !16
  call void @llvm.lifetime.start.p0(i64 4, ptr %5) #10
  store i32 0, ptr %5, align 4, !tbaa !16
  call void @llvm.lifetime.start.p0(i64 4, ptr %6) #10
  store i32 0, ptr %6, align 4, !tbaa !16
  call void @llvm.lifetime.start.p0(i64 8, ptr %7) #10
  store i64 0, ptr %7, align 8, !tbaa !21
  br label %12

12:                                               ; preds = %53, %2
  %13 = load i64, ptr %7, align 8, !tbaa !21
  %14 = load i32, ptr %4, align 4, !tbaa !16
  %15 = zext i32 %14 to i64
  %16 = lshr i64 %13, %15
  %17 = icmp eq i64 %16, 0
  br i1 %17, label %18, label %54

18:                                               ; preds = %12
  %19 = load i32, ptr %5, align 4, !tbaa !16
  %20 = load ptr, ptr %3, align 8, !tbaa !44
  %21 = getelementptr inbounds nuw %"struct.simdjson::internal::decimal", ptr %20, i32 0, i32 0
  %22 = load i32, ptr %21, align 4, !tbaa !26
  %23 = icmp ult i32 %19, %22
  br i1 %23, label %24, label %36

24:                                               ; preds = %18
  %25 = load i64, ptr %7, align 8, !tbaa !21
  %26 = mul i64 10, %25
  %27 = load ptr, ptr %3, align 8, !tbaa !44
  %28 = getelementptr inbounds nuw %"struct.simdjson::internal::decimal", ptr %27, i32 0, i32 4
  %29 = load i32, ptr %5, align 4, !tbaa !16
  %30 = add i32 %29, 1
  store i32 %30, ptr %5, align 4, !tbaa !16
  %31 = zext i32 %29 to i64
  %32 = getelementptr inbounds nuw [768 x i8], ptr %28, i64 0, i64 %31
  %33 = load i8, ptr %32, align 1, !tbaa !15
  %34 = zext i8 %33 to i64
  %35 = add i64 %26, %34
  store i64 %35, ptr %7, align 8, !tbaa !21
  br label %53

36:                                               ; preds = %18
  %37 = load i64, ptr %7, align 8, !tbaa !21
  %38 = icmp eq i64 %37, 0
  br i1 %38, label %39, label %40

39:                                               ; preds = %36
  store i32 1, ptr %8, align 4
  br label %149

40:                                               ; preds = %36
  br label %41

41:                                               ; preds = %47, %40
  %42 = load i64, ptr %7, align 8, !tbaa !21
  %43 = load i32, ptr %4, align 4, !tbaa !16
  %44 = zext i32 %43 to i64
  %45 = lshr i64 %42, %44
  %46 = icmp eq i64 %45, 0
  br i1 %46, label %47, label %52

47:                                               ; preds = %41
  %48 = load i64, ptr %7, align 8, !tbaa !21
  %49 = mul i64 10, %48
  store i64 %49, ptr %7, align 8, !tbaa !21
  %50 = load i32, ptr %5, align 4, !tbaa !16
  %51 = add i32 %50, 1
  store i32 %51, ptr %5, align 4, !tbaa !16
  br label %41, !llvm.loop !53

52:                                               ; preds = %41
  br label %54

53:                                               ; preds = %24
  br label %12, !llvm.loop !54

54:                                               ; preds = %52, %12
  %55 = load i32, ptr %5, align 4, !tbaa !16
  %56 = sub i32 %55, 1
  %57 = load ptr, ptr %3, align 8, !tbaa !44
  %58 = getelementptr inbounds nuw %"struct.simdjson::internal::decimal", ptr %57, i32 0, i32 1
  %59 = load i32, ptr %58, align 4, !tbaa !28
  %60 = sub nsw i32 %59, %56
  store i32 %60, ptr %58, align 4, !tbaa !28
  %61 = load ptr, ptr %3, align 8, !tbaa !44
  %62 = getelementptr inbounds nuw %"struct.simdjson::internal::decimal", ptr %61, i32 0, i32 1
  %63 = load i32, ptr %62, align 4, !tbaa !28
  %64 = icmp slt i32 %63, -2047
  br i1 %64, label %65, label %74

65:                                               ; preds = %54
  %66 = load ptr, ptr %3, align 8, !tbaa !44
  %67 = getelementptr inbounds nuw %"struct.simdjson::internal::decimal", ptr %66, i32 0, i32 0
  store i32 0, ptr %67, align 4, !tbaa !26
  %68 = load ptr, ptr %3, align 8, !tbaa !44
  %69 = getelementptr inbounds nuw %"struct.simdjson::internal::decimal", ptr %68, i32 0, i32 1
  store i32 0, ptr %69, align 4, !tbaa !28
  %70 = load ptr, ptr %3, align 8, !tbaa !44
  %71 = getelementptr inbounds nuw %"struct.simdjson::internal::decimal", ptr %70, i32 0, i32 2
  store i8 0, ptr %71, align 4, !tbaa !30
  %72 = load ptr, ptr %3, align 8, !tbaa !44
  %73 = getelementptr inbounds nuw %"struct.simdjson::internal::decimal", ptr %72, i32 0, i32 3
  store i8 0, ptr %73, align 1, !tbaa !29
  store i32 1, ptr %8, align 4
  br label %149

74:                                               ; preds = %54
  call void @llvm.lifetime.start.p0(i64 8, ptr %9) #10
  %75 = load i32, ptr %4, align 4, !tbaa !16
  %76 = zext i32 %75 to i64
  %77 = shl i64 1, %76
  %78 = sub i64 %77, 1
  store i64 %78, ptr %9, align 8, !tbaa !21
  br label %79

79:                                               ; preds = %85, %74
  %80 = load i32, ptr %5, align 4, !tbaa !16
  %81 = load ptr, ptr %3, align 8, !tbaa !44
  %82 = getelementptr inbounds nuw %"struct.simdjson::internal::decimal", ptr %81, i32 0, i32 0
  %83 = load i32, ptr %82, align 4, !tbaa !26
  %84 = icmp ult i32 %80, %83
  br i1 %84, label %85, label %111

85:                                               ; preds = %79
  call void @llvm.lifetime.start.p0(i64 1, ptr %10) #10
  %86 = load i64, ptr %7, align 8, !tbaa !21
  %87 = load i32, ptr %4, align 4, !tbaa !16
  %88 = zext i32 %87 to i64
  %89 = lshr i64 %86, %88
  %90 = trunc i64 %89 to i8
  store i8 %90, ptr %10, align 1, !tbaa !15
  %91 = load i64, ptr %7, align 8, !tbaa !21
  %92 = load i64, ptr %9, align 8, !tbaa !21
  %93 = and i64 %91, %92
  %94 = mul i64 10, %93
  %95 = load ptr, ptr %3, align 8, !tbaa !44
  %96 = getelementptr inbounds nuw %"struct.simdjson::internal::decimal", ptr %95, i32 0, i32 4
  %97 = load i32, ptr %5, align 4, !tbaa !16
  %98 = add i32 %97, 1
  store i32 %98, ptr %5, align 4, !tbaa !16
  %99 = zext i32 %97 to i64
  %100 = getelementptr inbounds nuw [768 x i8], ptr %96, i64 0, i64 %99
  %101 = load i8, ptr %100, align 1, !tbaa !15
  %102 = zext i8 %101 to i64
  %103 = add i64 %94, %102
  store i64 %103, ptr %7, align 8, !tbaa !21
  %104 = load i8, ptr %10, align 1, !tbaa !15
  %105 = load ptr, ptr %3, align 8, !tbaa !44
  %106 = getelementptr inbounds nuw %"struct.simdjson::internal::decimal", ptr %105, i32 0, i32 4
  %107 = load i32, ptr %6, align 4, !tbaa !16
  %108 = add i32 %107, 1
  store i32 %108, ptr %6, align 4, !tbaa !16
  %109 = zext i32 %107 to i64
  %110 = getelementptr inbounds nuw [768 x i8], ptr %106, i64 0, i64 %109
  store i8 %104, ptr %110, align 1, !tbaa !15
  call void @llvm.lifetime.end.p0(i64 1, ptr %10) #10
  br label %79, !llvm.loop !55

111:                                              ; preds = %79
  br label %112

112:                                              ; preds = %143, %111
  %113 = load i64, ptr %7, align 8, !tbaa !21
  %114 = icmp ugt i64 %113, 0
  br i1 %114, label %115, label %144

115:                                              ; preds = %112
  call void @llvm.lifetime.start.p0(i64 1, ptr %11) #10
  %116 = load i64, ptr %7, align 8, !tbaa !21
  %117 = load i32, ptr %4, align 4, !tbaa !16
  %118 = zext i32 %117 to i64
  %119 = lshr i64 %116, %118
  %120 = trunc i64 %119 to i8
  store i8 %120, ptr %11, align 1, !tbaa !15
  %121 = load i64, ptr %7, align 8, !tbaa !21
  %122 = load i64, ptr %9, align 8, !tbaa !21
  %123 = and i64 %121, %122
  %124 = mul i64 10, %123
  store i64 %124, ptr %7, align 8, !tbaa !21
  %125 = load i32, ptr %6, align 4, !tbaa !16
  %126 = icmp ult i32 %125, 768
  br i1 %126, label %127, label %135

127:                                              ; preds = %115
  %128 = load i8, ptr %11, align 1, !tbaa !15
  %129 = load ptr, ptr %3, align 8, !tbaa !44
  %130 = getelementptr inbounds nuw %"struct.simdjson::internal::decimal", ptr %129, i32 0, i32 4
  %131 = load i32, ptr %6, align 4, !tbaa !16
  %132 = add i32 %131, 1
  store i32 %132, ptr %6, align 4, !tbaa !16
  %133 = zext i32 %131 to i64
  %134 = getelementptr inbounds nuw [768 x i8], ptr %130, i64 0, i64 %133
  store i8 %128, ptr %134, align 1, !tbaa !15
  br label %143

135:                                              ; preds = %115
  %136 = load i8, ptr %11, align 1, !tbaa !15
  %137 = zext i8 %136 to i32
  %138 = icmp sgt i32 %137, 0
  br i1 %138, label %139, label %142

139:                                              ; preds = %135
  %140 = load ptr, ptr %3, align 8, !tbaa !44
  %141 = getelementptr inbounds nuw %"struct.simdjson::internal::decimal", ptr %140, i32 0, i32 3
  store i8 1, ptr %141, align 1, !tbaa !29
  br label %142

142:                                              ; preds = %139, %135
  br label %143

143:                                              ; preds = %142, %127
  call void @llvm.lifetime.end.p0(i64 1, ptr %11) #10
  br label %112, !llvm.loop !56

144:                                              ; preds = %112
  %145 = load i32, ptr %6, align 4, !tbaa !16
  %146 = load ptr, ptr %3, align 8, !tbaa !44
  %147 = getelementptr inbounds nuw %"struct.simdjson::internal::decimal", ptr %146, i32 0, i32 0
  store i32 %145, ptr %147, align 4, !tbaa !26
  %148 = load ptr, ptr %3, align 8, !tbaa !44
  call void @_ZN8simdjson8internal12_GLOBAL__N_14trimERNS0_7decimalE(ptr noundef nonnull align 4 dereferenceable(780) %148)
  call void @llvm.lifetime.end.p0(i64 8, ptr %9) #10
  store i32 0, ptr %8, align 4
  br label %149

149:                                              ; preds = %144, %65, %39
  call void @llvm.lifetime.end.p0(i64 8, ptr %7) #10
  call void @llvm.lifetime.end.p0(i64 4, ptr %6) #10
  call void @llvm.lifetime.end.p0(i64 4, ptr %5) #10
  %150 = load i32, ptr %8, align 4
  switch i32 %150, label %152 [
    i32 0, label %151
    i32 1, label %151
  ]

151:                                              ; preds = %149, %149
  ret void

152:                                              ; preds = %149
  unreachable
}