; Function Attrs: mustprogress nofree norecurse nosync nounwind memory(argmem: readwrite) uwtable
define dso_local void @_ZN8simdjson8internal19decimal_right_shiftERNS0_7decimalEj(ptr noundef nonnull align 4 captures(none) dereferenceable(780) %0, i32 noundef %1) local_unnamed_addr #5 {
  %3 = zext i32 %1 to i64
  %4 = load i32, ptr %0, align 4, !tbaa !13
  %5 = getelementptr inbounds nuw i8, ptr %0, i64 10
  %6 = zext i32 %4 to i64
  br label %7

7:                                                ; preds = %2, %8
  %indvars.iv = phi i64 [ 0, %2 ], [ %indvars.iv.next, %8 ]
  %.04757 = phi i64 [ 0, %2 ], [ %13, %8 ]
  %exitcond.not = icmp eq i64 %indvars.iv, %6
  br i1 %exitcond.not, label %16, label %8

8:                                                ; preds = %7
  %9 = mul i64 %.04757, 10
  %indvars.iv.next = add nuw nsw i64 %indvars.iv, 1
  %10 = getelementptr inbounds nuw [768 x i8], ptr %5, i64 0, i64 %indvars.iv
  %11 = load i8, ptr %10, align 1, !tbaa !4
  %12 = zext i8 %11 to i64
  %13 = add i64 %9, %12
  %14 = lshr i64 %13, %3
  %15 = icmp eq i64 %14, 0
  br i1 %15, label %7, label %.loopexit.loopexit73, !llvm.loop !43

16:                                               ; preds = %7
  %17 = icmp eq i64 %.04757, 0
  br i1 %17, label %_ZN8simdjson8internal12_GLOBAL__N_14trimERNS0_7decimalE.exit, label %.preheader52

.preheader52:                                     ; preds = %16
  %18 = lshr i64 %.04757, %3
  %19 = icmp eq i64 %18, 0
  br i1 %19, label %.lr.ph, label %.loopexit

.lr.ph:                                           ; preds = %.preheader52, %.lr.ph
  %.260 = phi i32 [ %21, %.lr.ph ], [ %4, %.preheader52 ]
  %.24959 = phi i64 [ %20, %.lr.ph ], [ %.04757, %.preheader52 ]
  %20 = mul i64 %.24959, 10
  %21 = add i32 %.260, 1
  %22 = lshr i64 %20, %3
  %23 = icmp eq i64 %22, 0
  br i1 %23, label %.lr.ph, label %.loopexit, !llvm.loop !44

.loopexit.loopexit73:                             ; preds = %8
  %24 = trunc nuw i64 %indvars.iv.next to i32
  br label %.loopexit

.loopexit:                                        ; preds = %.lr.ph, %.loopexit.loopexit73, %.preheader52
  %.148 = phi i64 [ %.04757, %.preheader52 ], [ %13, %.loopexit.loopexit73 ], [ %20, %.lr.ph ]
  %.1 = phi i32 [ %4, %.preheader52 ], [ %24, %.loopexit.loopexit73 ], [ %21, %.lr.ph ]
  %25 = getelementptr inbounds nuw i8, ptr %0, i64 4
  %26 = load i32, ptr %25, align 4, !tbaa !16
  %reass.sub = sub i32 %26, %.1
  %27 = add i32 %reass.sub, 1
  store i32 %27, ptr %25, align 4, !tbaa !16
  %28 = icmp slt i32 %27, -2047
  br i1 %28, label %29, label %30

29:                                               ; preds = %.loopexit
  tail call void @llvm.memset.p0.i64(ptr noundef nonnull align 4 dereferenceable(10) %0, i8 0, i64 10, i1 false)
  br label %_ZN8simdjson8internal12_GLOBAL__N_14trimERNS0_7decimalE.exit

30:                                               ; preds = %.loopexit
  %notmask = shl nsw i64 -1, %3
  %31 = xor i64 %notmask, -1
  %32 = icmp ult i32 %.1, %4
  br i1 %32, label %.lr.ph65, label %.preheader

.lr.ph65:                                         ; preds = %30
  %33 = zext i32 %.1 to i64
  %34 = sub nuw i32 %4, %.1
  br label %36

.preheader:                                       ; preds = %36, %30
  %.350.lcssa = phi i64 [ %.148, %30 ], [ %44, %36 ]
  %.044.lcssa = phi i32 [ 0, %30 ], [ %34, %36 ]
  %.not68 = icmp eq i64 %.350.lcssa, 0
  br i1 %.not68, label %._crit_edge, label %.lr.ph71

.lr.ph71:                                         ; preds = %.preheader
  %35 = getelementptr inbounds nuw i8, ptr %0, i64 9
  br label %46

36:                                               ; preds = %.lr.ph65, %36
  %indvars.iv84 = phi i64 [ 0, %.lr.ph65 ], [ %indvars.iv.next85, %36 ]
  %indvars.iv82 = phi i64 [ %33, %.lr.ph65 ], [ %indvars.iv.next83, %36 ]
  %.35062 = phi i64 [ %.148, %.lr.ph65 ], [ %44, %36 ]
  %37 = lshr i64 %.35062, %3
  %38 = trunc i64 %37 to i8
  %39 = and i64 %.35062, %31
  %40 = mul i64 %39, 10
  %indvars.iv.next83 = add nuw nsw i64 %indvars.iv82, 1
  %41 = getelementptr inbounds nuw [768 x i8], ptr %5, i64 0, i64 %indvars.iv82
  %42 = load i8, ptr %41, align 1, !tbaa !4
  %43 = zext i8 %42 to i64
  %44 = add i64 %40, %43
  %indvars.iv.next85 = add nuw nsw i64 %indvars.iv84, 1
  %45 = getelementptr inbounds nuw [768 x i8], ptr %5, i64 0, i64 %indvars.iv84
  store i8 %38, ptr %45, align 1, !tbaa !4
  %lftr.wideiv = trunc i64 %indvars.iv.next85 to i32
  %exitcond89.not = icmp eq i32 %34, %lftr.wideiv
  br i1 %exitcond89.not, label %.preheader, label %36, !llvm.loop !45

46:                                               ; preds = %.lr.ph71, %59
  %.14570 = phi i32 [ %.044.lcssa, %.lr.ph71 ], [ %.246, %59 ]
  %.469 = phi i64 [ %.350.lcssa, %.lr.ph71 ], [ %49, %59 ]
  %47 = lshr i64 %.469, %3
  %48 = and i64 %.469, %31
  %49 = mul i64 %48, 10
  %50 = icmp ult i32 %.14570, 768
  br i1 %50, label %51, label %56

51:                                               ; preds = %46
  %52 = trunc i64 %47 to i8
  %53 = add nuw nsw i32 %.14570, 1
  %54 = zext nneg i32 %.14570 to i64
  %55 = getelementptr inbounds nuw [768 x i8], ptr %5, i64 0, i64 %54
  store i8 %52, ptr %55, align 1, !tbaa !4
  br label %59

56:                                               ; preds = %46
  %57 = and i64 %47, 255
  %.not51 = icmp eq i64 %57, 0
  br i1 %.not51, label %59, label %58

58:                                               ; preds = %56
  store i8 1, ptr %35, align 1, !tbaa !17
  br label %59

59:                                               ; preds = %56, %58, %51
  %.246 = phi i32 [ %53, %51 ], [ %.14570, %58 ], [ %.14570, %56 ]
  %.not = icmp eq i64 %49, 0
  br i1 %.not, label %._crit_edge.thread, label %46, !llvm.loop !46

._crit_edge.thread:                               ; preds = %59
  store i32 %.246, ptr %0, align 4, !tbaa !13
  br label %.lr.ph.preheader.i

._crit_edge:                                      ; preds = %.preheader
  store i32 %.044.lcssa, ptr %0, align 4, !tbaa !13
  %.not4.i = icmp eq i32 %.044.lcssa, 0
  br i1 %.not4.i, label %_ZN8simdjson8internal12_GLOBAL__N_14trimERNS0_7decimalE.exit, label %.lr.ph.preheader.i

.lr.ph.preheader.i:                               ; preds = %._crit_edge.thread, %._crit_edge
  %.145.lcssa92 = phi i32 [ %.246, %._crit_edge.thread ], [ %.044.lcssa, %._crit_edge ]
  %60 = zext i32 %.145.lcssa92 to i64
  br label %.lr.ph.i

.lr.ph.i:                                         ; preds = %65, %.lr.ph.preheader.i
  %indvars.iv.i = phi i64 [ %60, %.lr.ph.preheader.i ], [ %indvars.iv.next.i, %65 ]
  %indvars.iv.next.i = add nsw i64 %indvars.iv.i, -1
  %61 = and i64 %indvars.iv.next.i, 4294967295
  %62 = getelementptr inbounds nuw [768 x i8], ptr %5, i64 0, i64 %61
  %63 = load i8, ptr %62, align 1, !tbaa !4
  %64 = icmp eq i8 %63, 0
  br i1 %64, label %65, label %_ZN8simdjson8internal12_GLOBAL__N_14trimERNS0_7decimalE.exit

65:                                               ; preds = %.lr.ph.i
  %indvars.i = trunc i64 %indvars.iv.next.i to i32
  store i32 %indvars.i, ptr %0, align 4, !tbaa !13
  %.not.i = icmp eq i32 %indvars.i, 0
  br i1 %.not.i, label %_ZN8simdjson8internal12_GLOBAL__N_14trimERNS0_7decimalE.exit, label %.lr.ph.i, !llvm.loop !42

_ZN8simdjson8internal12_GLOBAL__N_14trimERNS0_7decimalE.exit: ; preds = %65, %.lr.ph.i, %._crit_edge, %16, %29
  ret void
}